
block3.elf:     file format elf32-littleriscv


Disassembly of section .text:

00000000 <_start>:
   0:	3fc00113          	li	sp,1020
   4:	008000ef          	jal	c <main>

00000008 <loop>:
   8:	0000006f          	j	8 <loop>

0000000c <main>:
   c:	20000713          	li	a4,512
  10:	000017b7          	lui	a5,0x1
  14:	11178793          	addi	a5,a5,273 # 1111 <main+0x1105>
  18:	00f72023          	sw	a5,0(a4)
  1c:	00100793          	li	a5,1
  20:	10f02023          	sw	a5,256(zero) # 100 <main+0xf4>
  24:	00200793          	li	a5,2
  28:	10f02223          	sw	a5,260(zero) # 104 <main+0xf8>
  2c:	00300793          	li	a5,3
  30:	10f02423          	sw	a5,264(zero) # 108 <main+0xfc>
  34:	00400793          	li	a5,4
  38:	10f02623          	sw	a5,268(zero) # 10c <main+0x100>
  3c:	00500793          	li	a5,5
  40:	10f02823          	sw	a5,272(zero) # 110 <main+0x104>
  44:	00600793          	li	a5,6
  48:	10f02a23          	sw	a5,276(zero) # 114 <main+0x108>
  4c:	00700793          	li	a5,7
  50:	10f02c23          	sw	a5,280(zero) # 118 <main+0x10c>
  54:	00800793          	li	a5,8
  58:	10f02e23          	sw	a5,284(zero) # 11c <main+0x110>
  5c:	000027b7          	lui	a5,0x2
  60:	22278793          	addi	a5,a5,546 # 2222 <main+0x2216>
  64:	00f72023          	sw	a5,0(a4)
  68:	00400593          	li	a1,4
  6c:	00000713          	li	a4,0
  70:	12000613          	li	a2,288
  74:	10000793          	li	a5,256
  78:	0007a683          	lw	a3,0(a5)
  7c:	00d70733          	add	a4,a4,a3
  80:	00478793          	addi	a5,a5,4
  84:	fec79ae3          	bne	a5,a2,78 <main+0x6c>
  88:	fff58593          	addi	a1,a1,-1
  8c:	fe0594e3          	bnez	a1,74 <main+0x68>
  90:	1ae02823          	sw	a4,432(zero) # 1b0 <main+0x1a4>
  94:	0000b7b7          	lui	a5,0xb
  98:	aaa78793          	addi	a5,a5,-1366 # aaaa <main+0xaa9e>
  9c:	20f02023          	sw	a5,512(zero) # 200 <main+0x1f4>
  a0:	00008067          	ret
