
/home/ravindu/FYP/e20-4yp-onchip-offline-neuromorphic-computing/RISC_V/c_program/state2_surrogate.elf:     file format elf32-littleriscv


Disassembly of section .text:

00000000 <_start>:
   0:	3fc00113          	li	sp,1020
   4:	058000ef          	jal	5c <main>

00000008 <loop>:
   8:	0000006f          	j	8 <loop>

0000000c <state2_surrogate_pass>:
   c:	0000a7b7          	lui	a5,0xa
  10:	20078793          	addi	a5,a5,512 # a200 <main+0xa1a4>
  14:	20f02023          	sw	a5,512(zero) # 200 <main+0x1a4>
  18:	20004737          	lui	a4,0x20004
  1c:	a0000637          	lui	a2,0xa0000
  20:	200046b7          	lui	a3,0x20004
  24:	20068693          	addi	a3,a3,512 # 20004200 <main+0x200041a4>
  28:	00072783          	lw	a5,0(a4) # 20004000 <main+0x20003fa4>
  2c:	00e7d793          	srli	a5,a5,0xe
  30:	3fc7f793          	andi	a5,a5,1020
  34:	00f607b3          	add	a5,a2,a5
  38:	0007a783          	lw	a5,0(a5)
  3c:	0ff7f793          	zext.b	a5,a5
  40:	00f72023          	sw	a5,0(a4)
  44:	00470713          	addi	a4,a4,4
  48:	fed710e3          	bne	a4,a3,28 <state2_surrogate_pass+0x1c>
  4c:	0000a7b7          	lui	a5,0xa
  50:	2ff78793          	addi	a5,a5,767 # a2ff <main+0xa2a3>
  54:	20f02023          	sw	a5,512(zero) # 200 <main+0x1a4>
  58:	00008067          	ret

0000005c <main>:
  5c:	ff010113          	addi	sp,sp,-16
  60:	00112623          	sw	ra,12(sp)
  64:	00812423          	sw	s0,8(sp)
  68:	20000413          	li	s0,512
  6c:	0000c7b7          	lui	a5,0xc
  70:	eef78793          	addi	a5,a5,-273 # beef <main+0xbe93>
  74:	00f42023          	sw	a5,0(s0)
  78:	f95ff0ef          	jal	c <state2_surrogate_pass>
  7c:	0000d7b7          	lui	a5,0xd
  80:	0ae78793          	addi	a5,a5,174 # d0ae <main+0xd052>
  84:	00f42023          	sw	a5,0(s0)
  88:	0000006f          	j	88 <main+0x2c>
